target datalayout = "e-m:e-p270:32:32-p271:32:32-p272:64:64-i64:64-i128:128-f80:128-n8:16:32:64-S128"
target triple = "x86_64-pc-linux-gnu"

%struct.OnigEncodingTypeST = type { ptr, ptr, i32, i32, ptr, ptr, ptr, ptr, ptr, ptr, ptr, ptr, ptr, ptr, ptr, ptr, ptr, i32, i32 }
%struct._Node = type { %union.anon }
%union.anon = type { %struct.StrNode }
%struct.StrNode = type { %struct.NodeBase, ptr, ptr, i32, i32, [24 x i8] }
%struct.NodeBase = type { i32 }
%struct.CClassNode = type { %struct.NodeBase, i32, [8 x i32], ptr }
%struct.QtfrNode = type { %struct.NodeBase, i32, ptr, i32, i32, i32, i32, ptr, ptr, i32 }
%struct.ScanEnv = type { i32, i32, ptr, ptr, i32, i32, i32, i32, ptr, ptr, ptr, ptr, ptr, ptr, i32, i32, i32, i32, [8 x ptr], ptr, i32, i32, ptr, i32 }

@OnigEncodingASCII = external constant %struct.OnigEncodingTypeST, align 8

; Function Attrs: nounwind sspstrong uwtable
define dso_local void @onig_scan_env_set_error_string(ptr noundef %0, i32 noundef %1, ptr noundef %2, ptr noundef %3) #0 {
  %5 = alloca ptr, align 8
  %6 = alloca i32, align 4
  %7 = alloca ptr, align 8
  %8 = alloca ptr, align 8
  store ptr %0, ptr %5, align 8, !tbaa !12
  store i32 %1, ptr %6, align 4, !tbaa !13
  store ptr %2, ptr %7, align 8, !tbaa !7
  store ptr %3, ptr %8, align 8, !tbaa !7
  %9 = load ptr, ptr %7, align 8, !tbaa !7
  %10 = load ptr, ptr %5, align 8, !tbaa !12
  %11 = getelementptr inbounds nuw %struct.ScanEnv, ptr %10, i32 0, i32 10
  store ptr %9, ptr %11, align 8, !tbaa !109
  %12 = load ptr, ptr %8, align 8, !tbaa !7
  %13 = load ptr, ptr %5, align 8, !tbaa !12
  %14 = getelementptr inbounds nuw %struct.ScanEnv, ptr %13, i32 0, i32 11
  store ptr %12, ptr %14, align 8, !tbaa !110
  ret void
}

; Function Attrs: nounwind sspstrong uwtable
define internal i32 @propname2ctype(ptr noundef %0, ptr noundef %1) #0 {
  %3 = alloca ptr, align 8
  %4 = alloca ptr, align 8
  %5 = alloca ptr, align 8
  %6 = alloca ptr, align 8
  %7 = alloca i32, align 4
  store ptr %0, ptr %3, align 8, !tbaa !12
  store ptr %1, ptr %4, align 8, !tbaa !7
  call void @llvm.lifetime.start.p0(i64 8, ptr %5) #13
  %8 = load ptr, ptr %4, align 8, !tbaa !7
  store ptr %8, ptr %5, align 8, !tbaa !7
  call void @llvm.lifetime.start.p0(i64 8, ptr %6) #13
  %9 = load ptr, ptr %5, align 8, !tbaa !7
  %10 = load ptr, ptr %4, align 8, !tbaa !7
  %11 = call i64 @strlen(ptr noundef %10) #18
  %12 = getelementptr i8, ptr %9, i64 %11
  store ptr %12, ptr %6, align 8, !tbaa !7
  call void @llvm.lifetime.start.p0(i64 4, ptr %7) #13
  %13 = load ptr, ptr %3, align 8, !tbaa !12
  %14 = getelementptr inbounds nuw %struct.ScanEnv, ptr %13, i32 0, i32 2
  %15 = load ptr, ptr %14, align 8, !tbaa !98
  %16 = getelementptr inbounds nuw %struct.OnigEncodingTypeST, ptr %15, i32 0, i32 11
  %17 = load ptr, ptr %16, align 8, !tbaa !188
  %18 = load ptr, ptr %5, align 8, !tbaa !7
  %19 = load ptr, ptr %6, align 8, !tbaa !7
  %20 = call i32 %17(ptr noundef @OnigEncodingASCII, ptr noundef %18, ptr noundef %19)
  store i32 %20, ptr %7, align 4, !tbaa !13
  %21 = load i32, ptr %7, align 4, !tbaa !13
  %22 = icmp slt i32 %21, 0
  br i1 %22, label %23, label %28

23:                                               ; preds = %2
  %24 = load ptr, ptr %3, align 8, !tbaa !12
  %25 = load i32, ptr %7, align 4, !tbaa !13
  %26 = load ptr, ptr %5, align 8, !tbaa !7
  %27 = load ptr, ptr %6, align 8, !tbaa !7
  call void @onig_scan_env_set_error_string(ptr noundef %24, i32 noundef %25, ptr noundef %26, ptr noundef %27)
  br label %28

28:                                               ; preds = %23, %2
  %29 = load i32, ptr %7, align 4, !tbaa !13
  call void @llvm.lifetime.end.p0(i64 4, ptr %7) #13
  call void @llvm.lifetime.end.p0(i64 8, ptr %6) #13
  call void @llvm.lifetime.end.p0(i64 8, ptr %5) #13
  ret i32 %29
}

; Function Attrs: nounwind sspstrong uwtable
define internal void @initialize_cclass(ptr noundef %0) #0 {
  %2 = alloca ptr, align 8
  %3 = alloca i32, align 4
  store ptr %0, ptr %2, align 8, !tbaa !12
  br label %4

4:                                                ; preds = %1
  call void @llvm.lifetime.start.p0(i64 4, ptr %3) #13
  store i32 0, ptr %3, align 4, !tbaa !13
  br label %5

5:                                                ; preds = %14, %4
  %6 = load i32, ptr %3, align 4, !tbaa !13
  %7 = icmp slt i32 %6, 8
  br i1 %7, label %8, label %17

8:                                                ; preds = %5
  %9 = load ptr, ptr %2, align 8, !tbaa !12
  %10 = getelementptr inbounds nuw %struct.CClassNode, ptr %9, i32 0, i32 2
  %11 = load i32, ptr %3, align 4, !tbaa !13
  %12 = sext i32 %11 to i64
  %13 = getelementptr [8 x i32], ptr %10, i64 0, i64 %12
  store i32 0, ptr %13, align 4, !tbaa !13
  br label %14

14:                                               ; preds = %8
  %15 = load i32, ptr %3, align 4, !tbaa !13
  %16 = add i32 %15, 1
  store i32 %16, ptr %3, align 4, !tbaa !13
  br label %5, !llvm.loop !193

17:                                               ; preds = %5
  call void @llvm.lifetime.end.p0(i64 4, ptr %3) #13
  br label %18

18:                                               ; preds = %17
  %19 = load ptr, ptr %2, align 8, !tbaa !12
  %20 = getelementptr inbounds nuw %struct.CClassNode, ptr %19, i32 0, i32 1
  store i32 0, ptr %20, align 4, !tbaa !144
  %21 = load ptr, ptr %2, align 8, !tbaa !12
  %22 = getelementptr inbounds nuw %struct.CClassNode, ptr %21, i32 0, i32 3
  store ptr null, ptr %22, align 8, !tbaa !70
  ret void
}

; Function Attrs: alwaysinline nounwind
define internal ptr @memcpy.inline(ptr noalias nonnull %0, ptr noalias nonnull %1, i64 %2) #2 {
  %4 = alloca ptr, align 8
  %5 = alloca ptr, align 8
  %6 = alloca i64, align 8
  store ptr %0, ptr %4, align 8, !tbaa !12
  store ptr %1, ptr %5, align 8, !tbaa !12
  store i64 %2, ptr %6, align 8, !tbaa !15
  %7 = load ptr, ptr %4, align 8, !tbaa !12
  %8 = load ptr, ptr %5, align 8, !tbaa !12
  %9 = load i64, ptr %6, align 8, !tbaa !15
  %10 = load ptr, ptr %4, align 8, !tbaa !12
  %11 = call i64 @llvm.objectsize.i64.p0(ptr %10, i1 false, i1 true, i1 false)
  %12 = call ptr @__memcpy_chk(ptr noundef %7, ptr noundef %8, i64 noundef %9, i64 noundef %11) #13
  ret ptr %12
}

; Function Attrs: nounwind sspstrong uwtable
define internal ptr @node_new() #0 {
  %1 = alloca ptr, align 8
  call void @llvm.lifetime.start.p0(i64 8, ptr %1) #13
  %2 = call noalias ptr @malloc(i64 noundef 56) #14
  store ptr %2, ptr %1, align 8, !tbaa !68
  %3 = load ptr, ptr %1, align 8, !tbaa !68
  call void @llvm.lifetime.end.p0(i64 8, ptr %1) #13
  ret ptr %3
}

; Function Attrs: nounwind sspstrong uwtable
define internal ptr @node_new_quantifier(i32 noundef %0, i32 noundef %1, i32 noundef %2) #0 {
  %4 = alloca ptr, align 8
  %5 = alloca i32, align 4
  %6 = alloca i32, align 4
  %7 = alloca i32, align 4
  %8 = alloca ptr, align 8
  %9 = alloca i32, align 4
  %10 = alloca i32, align 4
  store i32 %0, ptr %5, align 4, !tbaa !13
  store i32 %1, ptr %6, align 4, !tbaa !13
  store i32 %2, ptr %7, align 4, !tbaa !13
  call void @llvm.lifetime.start.p0(i64 8, ptr %8) #13
  %11 = call ptr @node_new()
  store ptr %11, ptr %8, align 8, !tbaa !68
  %12 = load ptr, ptr %8, align 8, !tbaa !68
  %13 = icmp eq ptr %12, null
  br i1 %13, label %14, label %15

14:                                               ; preds = %3
  store ptr null, ptr %4, align 8
  store i32 1, ptr %9, align 4
  br label %62

15:                                               ; preds = %3
  br label %16

16:                                               ; preds = %15
  call void @llvm.lifetime.start.p0(i64 4, ptr %10) #13
  store i32 5, ptr %10, align 4, !tbaa !13
  %17 = load ptr, ptr %8, align 8, !tbaa !68
  %18 = getelementptr inbounds nuw %struct._Node, ptr %17, i32 0, i32 0
  %19 = getelementptr inbounds nuw %struct.NodeBase, ptr %18, i32 0, i32 0
  %20 = call ptr @memcpy.inline(ptr noundef %19, ptr noundef %10, i64 noundef 4) #13
  call void @llvm.lifetime.end.p0(i64 4, ptr %10) #13
  br label %21

21:                                               ; preds = %16
  br label %22

22:                                               ; preds = %21
  %23 = load ptr, ptr %8, align 8, !tbaa !68
  %24 = getelementptr inbounds nuw %struct._Node, ptr %23, i32 0, i32 0
  %25 = getelementptr inbounds nuw %struct.QtfrNode, ptr %24, i32 0, i32 1
  store i32 0, ptr %25, align 4, !tbaa !17
  %26 = load ptr, ptr %8, align 8, !tbaa !68
  %27 = getelementptr inbounds nuw %struct._Node, ptr %26, i32 0, i32 0
  %28 = getelementptr inbounds nuw %struct.QtfrNode, ptr %27, i32 0, i32 2
  store ptr null, ptr %28, align 8, !tbaa !17
  %29 = load i32, ptr %5, align 4, !tbaa !13
  %30 = load ptr, ptr %8, align 8, !tbaa !68
  %31 = getelementptr inbounds nuw %struct._Node, ptr %30, i32 0, i32 0
  %32 = getelementptr inbounds nuw %struct.QtfrNode, ptr %31, i32 0, i32 3
  store i32 %29, ptr %32, align 8, !tbaa !17
  %33 = load i32, ptr %6, align 4, !tbaa !13
  %34 = load ptr, ptr %8, align 8, !tbaa !68
  %35 = getelementptr inbounds nuw %struct._Node, ptr %34, i32 0, i32 0
  %36 = getelementptr inbounds nuw %struct.QtfrNode, ptr %35, i32 0, i32 4
  store i32 %33, ptr %36, align 4, !tbaa !17
  %37 = load ptr, ptr %8, align 8, !tbaa !68
  %38 = getelementptr inbounds nuw %struct._Node, ptr %37, i32 0, i32 0
  %39 = getelementptr inbounds nuw %struct.QtfrNode, ptr %38, i32 0, i32 5
  store i32 1, ptr %39, align 8, !tbaa !17
  %40 = load ptr, ptr %8, align 8, !tbaa !68
  %41 = getelementptr inbounds nuw %struct._Node, ptr %40, i32 0, i32 0
  %42 = getelementptr inbounds nuw %struct.QtfrNode, ptr %41, i32 0, i32 6
  store i32 0, ptr %42, align 4, !tbaa !17
  %43 = load ptr, ptr %8, align 8, !tbaa !68
  %44 = getelementptr inbounds nuw %struct._Node, ptr %43, i32 0, i32 0
  %45 = getelementptr inbounds nuw %struct.QtfrNode, ptr %44, i32 0, i32 7
  store ptr null, ptr %45, align 8, !tbaa !17
  %46 = load ptr, ptr %8, align 8, !tbaa !68
  %47 = getelementptr inbounds nuw %struct._Node, ptr %46, i32 0, i32 0
  %48 = getelementptr inbounds nuw %struct.QtfrNode, ptr %47, i32 0, i32 8
  store ptr null, ptr %48, align 8, !tbaa !17
  %49 = load ptr, ptr %8, align 8, !tbaa !68
  %50 = getelementptr inbounds nuw %struct._Node, ptr %49, i32 0, i32 0
  %51 = getelementptr inbounds nuw %struct.QtfrNode, ptr %50, i32 0, i32 9
  store i32 0, ptr %51, align 8, !tbaa !17
  %52 = load i32, ptr %7, align 4, !tbaa !13
  %53 = icmp ne i32 %52, 0
  br i1 %53, label %54, label %60

54:                                               ; preds = %22
  %55 = load ptr, ptr %8, align 8, !tbaa !68
  %56 = getelementptr inbounds nuw %struct._Node, ptr %55, i32 0, i32 0
  %57 = getelementptr inbounds nuw %struct.QtfrNode, ptr %56, i32 0, i32 1
  %58 = load i32, ptr %57, align 4, !tbaa !17
  %59 = or i32 %58, 16384
  store i32 %59, ptr %57, align 4, !tbaa !17
  br label %60

60:                                               ; preds = %54, %22
  %61 = load ptr, ptr %8, align 8, !tbaa !68
  store ptr %61, ptr %4, align 8
  store i32 1, ptr %9, align 4
  br label %62

62:                                               ; preds = %60, %14
  call void @llvm.lifetime.end.p0(i64 8, ptr %8) #13
  %63 = load ptr, ptr %4, align 8
  ret ptr %63
}

; Function Attrs: nounwind sspstrong uwtable
define internal i32 @add_property_to_cc(ptr noundef %0, ptr noundef %1, i32 noundef %2, ptr noundef %3) #0 {
  %5 = alloca i32, align 4
  %6 = alloca ptr, align 8
  %7 = alloca ptr, align 8
  %8 = alloca i32, align 4
  %9 = alloca ptr, align 8
  %10 = alloca i32, align 4
  %11 = alloca i32, align 4
  store ptr %0, ptr %6, align 8, !tbaa !12
  store ptr %1, ptr %7, align 8, !tbaa !7
  store i32 %2, ptr %8, align 4, !tbaa !13
  store ptr %3, ptr %9, align 8, !tbaa !12
  call void @llvm.lifetime.start.p0(i64 4, ptr %10) #13
  %12 = load ptr, ptr %9, align 8, !tbaa !12
  %13 = load ptr, ptr %7, align 8, !tbaa !7
  %14 = call i32 @propname2ctype(ptr noundef %12, ptr noundef %13)
  store i32 %14, ptr %10, align 4, !tbaa !13
  %15 = load i32, ptr %10, align 4, !tbaa !13
  %16 = icmp slt i32 %15, 0
  br i1 %16, label %17, label %19

17:                                               ; preds = %4
  %18 = load i32, ptr %10, align 4, !tbaa !13
  store i32 %18, ptr %5, align 4
  store i32 1, ptr %11, align 4
  br label %25

19:                                               ; preds = %4
  %20 = load ptr, ptr %6, align 8, !tbaa !12
  %21 = load i32, ptr %10, align 4, !tbaa !13
  %22 = load i32, ptr %8, align 4, !tbaa !13
  %23 = load ptr, ptr %9, align 8, !tbaa !12
  %24 = call i32 @add_ctype_to_cc(ptr noundef %20, i32 noundef %21, i32 noundef %22, i32 noundef 0, ptr noundef %23)
  store i32 %24, ptr %5, align 4
  store i32 1, ptr %11, align 4
  br label %25

25:                                               ; preds = %19, %17
  call void @llvm.lifetime.end.p0(i64 4, ptr %10) #13
  %26 = load i32, ptr %5, align 4
  ret i32 %26
}

; Function Attrs: nounwind sspstrong uwtable
define internal ptr @node_new_cclass() #0 {
  %1 = alloca ptr, align 8
  %2 = alloca ptr, align 8
  %3 = alloca i32, align 4
  %4 = alloca i32, align 4
  call void @llvm.lifetime.start.p0(i64 8, ptr %2) #13
  %5 = call ptr @node_new()
  store ptr %5, ptr %2, align 8, !tbaa !68
  %6 = load ptr, ptr %2, align 8, !tbaa !68
  %7 = icmp eq ptr %6, null
  br i1 %7, label %8, label %9

8:                                                ; preds = %0
  store ptr null, ptr %1, align 8
  store i32 1, ptr %3, align 4
  br label %20

9:                                                ; preds = %0
  br label %10

10:                                               ; preds = %9
  call void @llvm.lifetime.start.p0(i64 4, ptr %4) #13
  store i32 1, ptr %4, align 4, !tbaa !13
  %11 = load ptr, ptr %2, align 8, !tbaa !68
  %12 = getelementptr inbounds nuw %struct._Node, ptr %11, i32 0, i32 0
  %13 = getelementptr inbounds nuw %struct.NodeBase, ptr %12, i32 0, i32 0
  %14 = call ptr @memcpy.inline(ptr noundef %13, ptr noundef %4, i64 noundef 4) #13
  call void @llvm.lifetime.end.p0(i64 4, ptr %4) #13
  br label %15

15:                                               ; preds = %10
  br label %16

16:                                               ; preds = %15
  %17 = load ptr, ptr %2, align 8, !tbaa !68
  %18 = getelementptr inbounds nuw %struct._Node, ptr %17, i32 0, i32 0
  call void @initialize_cclass(ptr noundef %18)
  %19 = load ptr, ptr %2, align 8, !tbaa !68
  store ptr %19, ptr %1, align 8
  store i32 1, ptr %3, align 4
  br label %20

20:                                               ; preds = %16, %8
  call void @llvm.lifetime.end.p0(i64 8, ptr %2) #13
  %21 = load ptr, ptr %1, align 8
  ret ptr %21
}

; Function Attrs: nounwind sspstrong uwtable
define internal i32 @quantify_node(ptr noundef %0, i32 noundef %1, i32 noundef %2) #0 {
  %4 = alloca i32, align 4
  %5 = alloca ptr, align 8
  %6 = alloca i32, align 4
  %7 = alloca i32, align 4
  %8 = alloca ptr, align 8
  %9 = alloca i32, align 4
  store ptr %0, ptr %5, align 8, !tbaa !92
  store i32 %1, ptr %6, align 4, !tbaa !13
  store i32 %2, ptr %7, align 4, !tbaa !13
  call void @llvm.lifetime.start.p0(i64 8, ptr %8) #13
  %10 = load i32, ptr %6, align 4, !tbaa !13
  %11 = load i32, ptr %7, align 4, !tbaa !13
  %12 = call ptr @node_new_quantifier(i32 noundef %10, i32 noundef %11, i32 noundef 0)
  store ptr %12, ptr %8, align 8, !tbaa !68
  %13 = load ptr, ptr %8, align 8, !tbaa !68
  %14 = icmp eq ptr %13, null
  br i1 %14, label %15, label %16

15:                                               ; preds = %3
  store i32 -5, ptr %4, align 4
  store i32 1, ptr %9, align 4
  br label %24

16:                                               ; preds = %3
  %17 = load ptr, ptr %5, align 8, !tbaa !92
  %18 = load ptr, ptr %17, align 8, !tbaa !68
  %19 = load ptr, ptr %8, align 8, !tbaa !68
  %20 = getelementptr inbounds nuw %struct._Node, ptr %19, i32 0, i32 0
  %21 = getelementptr inbounds nuw %struct.QtfrNode, ptr %20, i32 0, i32 2
  store ptr %18, ptr %21, align 8, !tbaa !17
  %22 = load ptr, ptr %8, align 8, !tbaa !68
  %23 = load ptr, ptr %5, align 8, !tbaa !92
  store ptr %22, ptr %23, align 8, !tbaa !68
  store i32 0, ptr %4, align 4
  store i32 1, ptr %9, align 4
  br label %24

24:                                               ; preds = %16, %15
  call void @llvm.lifetime.end.p0(i64 8, ptr %8) #13
  %25 = load i32, ptr %4, align 4
  ret i32 %25
}

; Function Attrs: nounwind sspstrong uwtable
define internal i32 @create_property_node(ptr noundef %0, ptr noundef %1, ptr noundef %2) #0 {
  %4 = alloca i32, align 4
  %5 = alloca ptr, align 8
  %6 = alloca ptr, align 8
  %7 = alloca ptr, align 8
  %8 = alloca i32, align 4
  %9 = alloca ptr, align 8
  %10 = alloca i32, align 4
  store ptr %0, ptr %5, align 8, !tbaa !92
  store ptr %1, ptr %6, align 8, !tbaa !12
  store ptr %2, ptr %7, align 8, !tbaa !7
  call void @llvm.lifetime.start.p0(i64 4, ptr %8) #13
  call void @llvm.lifetime.start.p0(i64 8, ptr %9) #13
  %11 = call ptr @node_new_cclass()
  %12 = load ptr, ptr %5, align 8, !tbaa !92
  store ptr %11, ptr %12, align 8, !tbaa !68
  %13 = load ptr, ptr %5, align 8, !tbaa !92
  %14 = load ptr, ptr %13, align 8, !tbaa !68
  %15 = icmp eq ptr %14, null
  br i1 %15, label %16, label %17

16:                                               ; preds = %3
  store i32 -5, ptr %4, align 4
  store i32 1, ptr %10, align 4
  br label %32

17:                                               ; preds = %3
  %18 = load ptr, ptr %5, align 8, !tbaa !92
  %19 = load ptr, ptr %18, align 8, !tbaa !68
  %20 = getelementptr inbounds nuw %struct._Node, ptr %19, i32 0, i32 0
  store ptr %20, ptr %9, align 8, !tbaa !12
  %21 = load ptr, ptr %9, align 8, !tbaa !12
  %22 = load ptr, ptr %7, align 8, !tbaa !7
  %23 = load ptr, ptr %6, align 8, !tbaa !12
  %24 = call i32 @add_property_to_cc(ptr noundef %21, ptr noundef %22, i32 noundef 0, ptr noundef %23)
  store i32 %24, ptr %8, align 4, !tbaa !13
  %25 = load i32, ptr %8, align 4, !tbaa !13
  %26 = icmp ne i32 %25, 0
  br i1 %26, label %27, label %30

27:                                               ; preds = %17
  %28 = load ptr, ptr %5, align 8, !tbaa !92
  %29 = load ptr, ptr %28, align 8, !tbaa !68
  call void @onig_node_free(ptr noundef %29)
  br label %30

30:                                               ; preds = %27, %17
  %31 = load i32, ptr %8, align 4, !tbaa !13
  store i32 %31, ptr %4, align 4
  store i32 1, ptr %10, align 4
  br label %32

32:                                               ; preds = %30, %16
  call void @llvm.lifetime.end.p0(i64 8, ptr %9) #13
  call void @llvm.lifetime.end.p0(i64 4, ptr %8) #13
  %33 = load i32, ptr %4, align 4
  ret i32 %33
}

; Function Attrs: nounwind sspstrong uwtable
define internal i32 @quantify_property_node(ptr noundef %0, ptr noundef %1, ptr noundef %2, i8 noundef signext %3) #0 {
  %5 = alloca i32, align 4
  %6 = alloca ptr, align 8
  %7 = alloca ptr, align 8
  %8 = alloca ptr, align 8
  %9 = alloca i8, align 1
  %10 = alloca i32, align 4
  %11 = alloca i32, align 4
  %12 = alloca i32, align 4
  %13 = alloca i32, align 4
  store ptr %0, ptr %6, align 8, !tbaa !92
  store ptr %1, ptr %7, align 8, !tbaa !12
  store ptr %2, ptr %8, align 8, !tbaa !7
  store i8 %3, ptr %9, align 1, !tbaa !17
  call void @llvm.lifetime.start.p0(i64 4, ptr %10) #13
  call void @llvm.lifetime.start.p0(i64 4, ptr %11) #13
  store i32 0, ptr %11, align 4, !tbaa !13
  call void @llvm.lifetime.start.p0(i64 4, ptr %12) #13
  store i32 -1, ptr %12, align 4, !tbaa !13
  %14 = load ptr, ptr %6, align 8, !tbaa !92
  %15 = load ptr, ptr %7, align 8, !tbaa !12
  %16 = load ptr, ptr %8, align 8, !tbaa !7
  %17 = call i32 @create_property_node(ptr noundef %14, ptr noundef %15, ptr noundef %16)
  store i32 %17, ptr %10, align 4, !tbaa !13
  %18 = load i32, ptr %10, align 4, !tbaa !13
  %19 = icmp ne i32 %18, 0
  br i1 %19, label %20, label %22

20:                                               ; preds = %4
  %21 = load i32, ptr %10, align 4, !tbaa !13
  store i32 %21, ptr %5, align 4
  store i32 1, ptr %13, align 4
  br label %34

22:                                               ; preds = %4
  %23 = load i8, ptr %9, align 1, !tbaa !17
  %24 = sext i8 %23 to i32
  switch i32 %24, label %28 [
    i32 63, label %25
    i32 43, label %26
    i32 42, label %29
    i32 50, label %27
  ]

25:                                               ; preds = %22
  store i32 1, ptr %12, align 4, !tbaa !13
  br label %29

26:                                               ; preds = %22
  store i32 1, ptr %11, align 4, !tbaa !13
  br label %29

27:                                               ; preds = %22
  store i32 2, ptr %12, align 4, !tbaa !13
  store i32 2, ptr %11, align 4, !tbaa !13
  br label %29

28:                                               ; preds = %22
  store i32 -11, ptr %5, align 4
  store i32 1, ptr %13, align 4
  br label %34

29:                                               ; preds = %27, %22, %26, %25
  %30 = load ptr, ptr %6, align 8, !tbaa !92
  %31 = load i32, ptr %11, align 4, !tbaa !13
  %32 = load i32, ptr %12, align 4, !tbaa !13
  %33 = call i32 @quantify_node(ptr noundef %30, i32 noundef %31, i32 noundef %32)
  store i32 %33, ptr %5, align 4
  store i32 1, ptr %13, align 4
  br label %34

34:                                               ; preds = %29, %28, %20
  call void @llvm.lifetime.end.p0(i64 4, ptr %12) #13
  call void @llvm.lifetime.end.p0(i64 4, ptr %11) #13
  call void @llvm.lifetime.end.p0(i64 4, ptr %10) #13
  %35 = load i32, ptr %5, align 4
  ret i32 %35
}