; Function Attrs: nounwind sspstrong uwtable
define internal fastcc i32 @quantify_property_node(ptr noundef captures(none) initializes((0, 8)) %0, ptr noundef captures(none) %1, ptr noundef %2, i8 noundef signext range(i8 42, 51) %3) unnamed_addr #5 {
  %5 = tail call noalias noundef dereferenceable_or_null(56) ptr @malloc(i64 noundef 56) #26
  %6 = icmp eq ptr %5, null
  br i1 %6, label %node_new_cclass.exit.thread.i, label %7

node_new_cclass.exit.thread.i:                    ; preds = %4
  store ptr null, ptr %0, align 8, !tbaa !89
  br label %quantify_node.exit

7:                                                ; preds = %4
  store i32 1, ptr %5, align 1
  %8 = getelementptr inbounds nuw i8, ptr %5, i64 4
  tail call void @llvm.memset.p0.i64(ptr noundef nonnull align 4 dereferenceable(44) %8, i8 0, i64 44, i1 false)
  store ptr %5, ptr %0, align 8, !tbaa !89
  %9 = tail call i64 @strlen(ptr noundef nonnull dereferenceable(1) %2) #29
  %10 = getelementptr i8, ptr %2, i64 %9
  %11 = getelementptr inbounds nuw i8, ptr %1, i64 8
  %12 = load ptr, ptr %11, align 8, !tbaa !84
  %13 = getelementptr inbounds nuw i8, ptr %12, i64 80
  %14 = load ptr, ptr %13, align 8, !tbaa !127
  %15 = tail call i32 %14(ptr noundef nonnull @OnigEncodingASCII, ptr noundef nonnull %2, ptr noundef %10) #25
  %16 = icmp slt i32 %15, 0
  br i1 %16, label %add_property_to_cc.exit.thread.i, label %add_property_to_cc.exit.i

add_property_to_cc.exit.thread.i:                 ; preds = %7
  %17 = getelementptr inbounds nuw i8, ptr %1, i64 56
  store ptr %2, ptr %17, align 8, !tbaa !94
  %18 = getelementptr inbounds nuw i8, ptr %1, i64 64
  store ptr %10, ptr %18, align 8, !tbaa !95
  br label %20

add_property_to_cc.exit.i:                        ; preds = %7
  %19 = tail call fastcc i32 @add_ctype_to_cc(ptr noundef nonnull %5, i32 noundef %15, i32 noundef 0, i32 noundef 0, ptr noundef nonnull %1)
  %.not.i = icmp eq i32 %19, 0
  br i1 %.not.i, label %create_property_node.exit, label %20

20:                                               ; preds = %add_property_to_cc.exit.i, %add_property_to_cc.exit.thread.i
  %.0.i12.i = phi i32 [ %15, %add_property_to_cc.exit.thread.i ], [ %19, %add_property_to_cc.exit.i ]
  %21 = load ptr, ptr %0, align 8, !tbaa !89
  tail call void @onig_node_free(ptr noundef %21)
  br label %quantify_node.exit

create_property_node.exit:                        ; preds = %add_property_to_cc.exit.i
  switch i8 %3, label %quantify_node.exit [
    i8 50, label %23
    i8 43, label %22
    i8 42, label %24
  ]

22:                                               ; preds = %create_property_node.exit
  br label %24

23:                                               ; preds = %create_property_node.exit
  br label %24

24:                                               ; preds = %23, %22, %create_property_node.exit
  %.09 = phi i32 [ 2, %23 ], [ 0, %create_property_node.exit ], [ 1, %22 ]
  %.0 = phi i32 [ 2, %23 ], [ -1, %create_property_node.exit ], [ -1, %22 ]
  %25 = tail call noalias noundef dereferenceable_or_null(56) ptr @malloc(i64 noundef 56) #26
  %26 = icmp eq ptr %25, null
  br i1 %26, label %quantify_node.exit, label %27

27:                                               ; preds = %24
  store i32 5, ptr %25, align 1
  %28 = getelementptr inbounds nuw i8, ptr %25, i64 4
  store i32 0, ptr %28, align 4, !tbaa !13
  %29 = getelementptr inbounds nuw i8, ptr %25, i64 8
  %30 = getelementptr inbounds nuw i8, ptr %25, i64 16
  store i32 %.09, ptr %30, align 8, !tbaa !13
  %31 = getelementptr inbounds nuw i8, ptr %25, i64 20
  store i32 %.0, ptr %31, align 4, !tbaa !13
  %32 = getelementptr inbounds nuw i8, ptr %25, i64 24
  store i32 1, ptr %32, align 8, !tbaa !13
  %33 = getelementptr inbounds nuw i8, ptr %25, i64 28
  tail call void @llvm.memset.p0.i64(ptr noundef nonnull align 4 dereferenceable(24) %33, i8 0, i64 24, i1 false)
  %34 = load ptr, ptr %0, align 8, !tbaa !89
  store ptr %34, ptr %29, align 8, !tbaa !13
  store ptr %25, ptr %0, align 8, !tbaa !89
  br label %quantify_node.exit

quantify_node.exit:                               ; preds = %node_new_cclass.exit.thread.i, %20, %27, %24, %create_property_node.exit
  %.010 = phi i32 [ -11, %create_property_node.exit ], [ 0, %27 ], [ -5, %24 ], [ -5, %node_new_cclass.exit.thread.i ], [ %.0.i12.i, %20 ]
  ret i32 %.010
}